target datalayout = "e-m:e-p270:32:32-p271:32:32-p272:64:64-i64:64-i128:128-f80:128-n8:16:32:64-S128"
target triple = "x86_64-pc-linux-gnu"

; Function Attrs: mustprogress nounwind uwtable
define hidden noundef double @_ZN6Assimp3FBX12FBXConverter17FrameRateToDoubleENS0_18FileGlobalSettings9FrameRateEd(i32 noundef %0, double noundef %1) #3 align 2 {
  %3 = alloca double, align 8
  %4 = alloca i32, align 4
  %5 = alloca double, align 8
  store i32 %0, ptr %4, align 4
  store double %1, ptr %5, align 8
  %6 = load i32, ptr %4, align 4
  switch i32 %6, label %21 [
    i32 0, label %7
    i32 1, label %8
    i32 2, label %9
    i32 3, label %10
    i32 4, label %11
    i32 5, label %12
    i32 6, label %13
    i32 7, label %13
    i32 8, label %14
    i32 9, label %14
    i32 10, label %15
    i32 11, label %16
    i32 12, label %17
    i32 13, label %18
    i32 14, label %19
    i32 15, label %21
  ]

7:                                                ; preds = %2
  store double 1.000000e+00, ptr %3, align 8
  br label %22

8:                                                ; preds = %2
  store double 1.200000e+02, ptr %3, align 8
  br label %22

9:                                                ; preds = %2
  store double 1.000000e+02, ptr %3, align 8
  br label %22

10:                                               ; preds = %2
  store double 6.000000e+01, ptr %3, align 8
  br label %22

11:                                               ; preds = %2
  store double 5.000000e+01, ptr %3, align 8
  br label %22

12:                                               ; preds = %2
  store double 4.800000e+01, ptr %3, align 8
  br label %22

13:                                               ; preds = %2, %2
  store double 3.000000e+01, ptr %3, align 8
  br label %22

14:                                               ; preds = %2, %2
  store double 0x403DF853A315435E, ptr %3, align 8
  br label %22

15:                                               ; preds = %2
  store double 2.500000e+01, ptr %3, align 8
  br label %22

16:                                               ; preds = %2
  store double 2.400000e+01, ptr %3, align 8
  br label %22

17:                                               ; preds = %2
  store double 1.000000e+03, ptr %3, align 8
  br label %22

18:                                               ; preds = %2
  store double 2.397600e+01, ptr %3, align 8
  br label %22

19:                                               ; preds = %2
  %20 = load double, ptr %5, align 8
  store double %20, ptr %3, align 8
  br label %22

21:                                               ; preds = %2, %2
  store double -1.000000e+00, ptr %3, align 8
  br label %22

22:                                               ; preds = %21, %19, %18, %17, %16, %15, %14, %13, %12, %11, %10, %9, %8, %7
  %23 = load double, ptr %3, align 8
  ret double %23
}