; Function Attrs: mustprogress nofree norecurse nosync nounwind willreturn memory(none) uwtable
define hidden noundef double @_ZN6Assimp3FBX12FBXConverter17FrameRateToDoubleENS0_18FileGlobalSettings9FrameRateEd(i32 noundef %0, double noundef %1) local_unnamed_addr #13 align 2 {
  switch i32 %0, label %15 [
    i32 0, label %16
    i32 1, label %3
    i32 2, label %4
    i32 3, label %5
    i32 4, label %6
    i32 5, label %7
    i32 6, label %8
    i32 7, label %8
    i32 8, label %9
    i32 9, label %9
    i32 10, label %10
    i32 11, label %11
    i32 12, label %12
    i32 13, label %13
    i32 14, label %14
  ]

3:                                                ; preds = %2
  br label %16

4:                                                ; preds = %2
  br label %16

5:                                                ; preds = %2
  br label %16

6:                                                ; preds = %2
  br label %16

7:                                                ; preds = %2
  br label %16

8:                                                ; preds = %2, %2
  br label %16

9:                                                ; preds = %2, %2
  br label %16

10:                                               ; preds = %2
  br label %16

11:                                               ; preds = %2
  br label %16

12:                                               ; preds = %2
  br label %16

13:                                               ; preds = %2
  br label %16

14:                                               ; preds = %2
  br label %16

15:                                               ; preds = %2
  br label %16

16:                                               ; preds = %2, %15, %14, %13, %12, %11, %10, %9, %8, %7, %6, %5, %4, %3
  %.0 = phi double [ -1.000000e+00, %15 ], [ %1, %14 ], [ 2.397600e+01, %13 ], [ 1.000000e+03, %12 ], [ 2.400000e+01, %11 ], [ 2.500000e+01, %10 ], [ 0x403DF853A315435E, %9 ], [ 3.000000e+01, %8 ], [ 4.800000e+01, %7 ], [ 5.000000e+01, %6 ], [ 6.000000e+01, %5 ], [ 1.000000e+02, %4 ], [ 1.200000e+02, %3 ], [ 1.000000e+00, %2 ]
  ret double %.0
}